target datalayout = "e-m:e-p270:32:32-p271:32:32-p272:64:64-i64:64-i128:128-f80:128-n8:16:32:64-S128"
target triple = "x86_64-pc-linux-gnu"

%struct.GtkRequisition = type { i32, i32 }
%struct._GtkWidget = type { %struct.GtkObject, i16, i8, i8, ptr, ptr, %struct.GtkRequisition, %struct.GtkAllocation, ptr, ptr }
%struct.GtkObject = type { %struct.GObject, i32 }
%struct.GObject = type { %struct.GTypeInstance, i32, ptr }
%struct.GTypeInstance = type { ptr }
%struct.GtkAllocation = type { i32, i32, i32, i32 }

@fp_gtk_paint_focus = internal global ptr null, align 8
@gtk2_white_pixmap = internal global ptr null, align 8
@gtk2_black_pixmap = internal global ptr null, align 8
@gtk2_widget = internal global ptr null, align 8

; Function Attrs: nounwind uwtable
define internal void @gtk2_paint_focus(i32 noundef %0, i32 noundef %1, ptr noundef %2, i32 noundef %3, i32 noundef %4, i32 noundef %5, i32 noundef %6) #0 {
  %8 = alloca i32, align 4
  %9 = alloca i32, align 4
  %10 = alloca ptr, align 8
  %11 = alloca i32, align 4
  %12 = alloca i32, align 4
  %13 = alloca i32, align 4
  %14 = alloca i32, align 4
  store i32 %0, ptr %8, align 4
  store i32 %1, ptr %9, align 4
  store ptr %2, ptr %10, align 8
  store i32 %3, ptr %11, align 4
  store i32 %4, ptr %12, align 4
  store i32 %5, ptr %13, align 4
  store i32 %6, ptr %14, align 4
  %15 = load i32, ptr %8, align 4
  %16 = call ptr @gtk2_get_widget(i32 noundef %15)
  store ptr %16, ptr @gtk2_widget, align 8
  %17 = load ptr, ptr @fp_gtk_paint_focus, align 8
  %18 = load ptr, ptr @gtk2_widget, align 8
  %19 = getelementptr inbounds %struct._GtkWidget, ptr %18, i32 0, i32 5
  %20 = load ptr, ptr %19, align 8
  %21 = load ptr, ptr @gtk2_white_pixmap, align 8
  %22 = load i32, ptr %9, align 4
  %23 = load ptr, ptr @gtk2_widget, align 8
  %24 = load ptr, ptr %10, align 8
  %25 = load i32, ptr %11, align 4
  %26 = load i32, ptr %12, align 4
  %27 = load i32, ptr %13, align 4
  %28 = load i32, ptr %14, align 4
  call void %17(ptr noundef %20, ptr noundef %21, i32 noundef %22, ptr noundef null, ptr noundef %23, ptr noundef %24, i32 noundef %25, i32 noundef %26, i32 noundef %27, i32 noundef %28)
  %29 = load ptr, ptr @fp_gtk_paint_focus, align 8
  %30 = load ptr, ptr @gtk2_widget, align 8
  %31 = getelementptr inbounds %struct._GtkWidget, ptr %30, i32 0, i32 5
  %32 = load ptr, ptr %31, align 8
  %33 = load ptr, ptr @gtk2_black_pixmap, align 8
  %34 = load i32, ptr %9, align 4
  %35 = load ptr, ptr @gtk2_widget, align 8
  %36 = load ptr, ptr %10, align 8
  %37 = load i32, ptr %11, align 4
  %38 = load i32, ptr %12, align 4
  %39 = load i32, ptr %13, align 4
  %40 = load i32, ptr %14, align 4
  call void %29(ptr noundef %32, ptr noundef %33, i32 noundef %34, ptr noundef null, ptr noundef %35, ptr noundef %36, i32 noundef %37, i32 noundef %38, i32 noundef %39, i32 noundef %40)
  ret void
}